target datalayout = "e-m:e-p270:32:32-p271:32:32-p272:64:64-i64:64-i128:128-f80:128-n8:16:32:64-S128"
target triple = "x86_64-pc-linux-gnu"

%struct._zval_struct = type { %union._zend_value, %union.anon, %union.anon.2 }
%union._zend_value = type { i64 }
%union.anon = type { i32 }
%union.anon.2 = type { i32 }
%struct._zend_op_array = type { i8, [3 x i8], i32, ptr, ptr, ptr, i32, i32, ptr, ptr, ptr, ptr, i32, i32, i32, i32, ptr, ptr, ptr, ptr, ptr, i32, i32, ptr, ptr, ptr, i32, i32, i32, i32, ptr, ptr, [6 x ptr] }
%struct._zend_execute_data = type { ptr, ptr, ptr, ptr, %struct._zval_struct, ptr, ptr, ptr, ptr }

; Function Attrs: nounwind uwtable
define void @zend_attach_symbol_table(ptr noundef %0) #0 {
  %2 = alloca ptr, align 8
  %3 = alloca ptr, align 8
  %4 = alloca ptr, align 8
  %5 = alloca ptr, align 8
  %6 = alloca ptr, align 8
  %7 = alloca ptr, align 8
  %8 = alloca ptr, align 8
  %9 = alloca ptr, align 8
  %10 = alloca ptr, align 8
  %11 = alloca ptr, align 8
  %12 = alloca ptr, align 8
  %13 = alloca ptr, align 8
  %14 = alloca i32, align 4
  %15 = alloca ptr, align 8
  %16 = alloca ptr, align 8
  %17 = alloca ptr, align 8
  %18 = alloca i32, align 4
  store ptr %0, ptr %3, align 8
  %19 = load ptr, ptr %3, align 8
  %20 = getelementptr inbounds %struct._zend_execute_data, ptr %19, i32 0, i32 3
  %21 = load ptr, ptr %20, align 8
  store ptr %21, ptr %4, align 8
  %22 = load ptr, ptr %3, align 8
  %23 = getelementptr inbounds %struct._zend_execute_data, ptr %22, i32 0, i32 6
  %24 = load ptr, ptr %23, align 8
  store ptr %24, ptr %5, align 8
  %25 = load ptr, ptr %4, align 8
  %26 = getelementptr inbounds %struct._zend_op_array, ptr %25, i32 0, i32 14
  %27 = load i32, ptr %26, align 8
  %28 = icmp ne i32 %27, 0
  %29 = xor i1 %28, true
  %30 = xor i1 %29, true
  %31 = zext i1 %30 to i32
  %32 = sext i32 %31 to i64
  %33 = icmp ne i64 %32, 0
  br i1 %33, label %34, label %129

34:                                               ; preds = %1
  %35 = load ptr, ptr %4, align 8
  %36 = getelementptr inbounds %struct._zend_op_array, ptr %35, i32 0, i32 19
  %37 = load ptr, ptr %36, align 8
  store ptr %37, ptr %6, align 8
  %38 = load ptr, ptr %6, align 8
  %39 = load ptr, ptr %4, align 8
  %40 = getelementptr inbounds %struct._zend_op_array, ptr %39, i32 0, i32 14
  %41 = load i32, ptr %40, align 8
  %42 = sext i32 %41 to i64
  %43 = getelementptr inbounds ptr, ptr %38, i64 %42
  store ptr %43, ptr %7, align 8
  %44 = load ptr, ptr %3, align 8
  %45 = getelementptr inbounds %struct._zval_struct, ptr %44, i64 5
  store ptr %45, ptr %8, align 8
  br label %46

46:                                               ; preds = %124, %34
  %47 = load ptr, ptr %5, align 8
  %48 = load ptr, ptr %6, align 8
  %49 = load ptr, ptr %48, align 8
  %50 = call ptr @zend_hash_find_known_hash(ptr noundef %47, ptr noundef %49)
  store ptr %50, ptr %9, align 8
  %51 = load ptr, ptr %9, align 8
  %52 = icmp ne ptr %51, null
  br i1 %52, label %53, label %102

53:                                               ; preds = %46
  %54 = load ptr, ptr %9, align 8
  store ptr %54, ptr %2, align 8
  %55 = load ptr, ptr %2, align 8
  %56 = getelementptr inbounds %struct._zval_struct, ptr %55, i32 0, i32 1
  %57 = load i8, ptr %56, align 8
  %58 = zext i8 %57 to i32
  %59 = icmp eq i32 %58, 12
  br i1 %59, label %60, label %82

60:                                               ; preds = %53
  %61 = load ptr, ptr %9, align 8
  %62 = getelementptr inbounds %struct._zval_struct, ptr %61, i32 0, i32 0
  %63 = load ptr, ptr %62, align 8
  store ptr %63, ptr %10, align 8
  br label %64

64:                                               ; preds = %60
  %65 = load ptr, ptr %8, align 8
  store ptr %65, ptr %11, align 8
  %66 = load ptr, ptr %10, align 8
  store ptr %66, ptr %12, align 8
  %67 = load ptr, ptr %12, align 8
  %68 = getelementptr inbounds %struct._zval_struct, ptr %67, i32 0, i32 0
  %69 = load ptr, ptr %68, align 8
  store ptr %69, ptr %13, align 8
  %70 = load ptr, ptr %12, align 8
  %71 = getelementptr inbounds %struct._zval_struct, ptr %70, i32 0, i32 1
  %72 = load i32, ptr %71, align 8
  store i32 %72, ptr %14, align 4
  br label %73

73:                                               ; preds = %64
  %74 = load ptr, ptr %13, align 8
  %75 = load ptr, ptr %11, align 8
  %76 = getelementptr inbounds %struct._zval_struct, ptr %75, i32 0, i32 0
  store ptr %74, ptr %76, align 8
  %77 = load i32, ptr %14, align 4
  %78 = load ptr, ptr %11, align 8
  %79 = getelementptr inbounds %struct._zval_struct, ptr %78, i32 0, i32 1
  store i32 %77, ptr %79, align 8
  br label %80

80:                                               ; preds = %73
  br label %81

81:                                               ; preds = %80
  br label %101

82:                                               ; preds = %53
  br label %83

83:                                               ; preds = %82
  %84 = load ptr, ptr %8, align 8
  store ptr %84, ptr %15, align 8
  %85 = load ptr, ptr %9, align 8
  store ptr %85, ptr %16, align 8
  %86 = load ptr, ptr %16, align 8
  %87 = getelementptr inbounds %struct._zval_struct, ptr %86, i32 0, i32 0
  %88 = load ptr, ptr %87, align 8
  store ptr %88, ptr %17, align 8
  %89 = load ptr, ptr %16, align 8
  %90 = getelementptr inbounds %struct._zval_struct, ptr %89, i32 0, i32 1
  %91 = load i32, ptr %90, align 8
  store i32 %91, ptr %18, align 4
  br label %92

92:                                               ; preds = %83
  %93 = load ptr, ptr %17, align 8
  %94 = load ptr, ptr %15, align 8
  %95 = getelementptr inbounds %struct._zval_struct, ptr %94, i32 0, i32 0
  store ptr %93, ptr %95, align 8
  %96 = load i32, ptr %18, align 4
  %97 = load ptr, ptr %15, align 8
  %98 = getelementptr inbounds %struct._zval_struct, ptr %97, i32 0, i32 1
  store i32 %96, ptr %98, align 8
  br label %99

99:                                               ; preds = %92
  br label %100

100:                                              ; preds = %99
  br label %101

101:                                              ; preds = %100, %81
  br label %112

102:                                              ; preds = %46
  br label %103

103:                                              ; preds = %102
  %104 = load ptr, ptr %8, align 8
  %105 = getelementptr inbounds %struct._zval_struct, ptr %104, i32 0, i32 1
  store i32 0, ptr %105, align 8
  br label %106

106:                                              ; preds = %103
  %107 = load ptr, ptr %5, align 8
  %108 = load ptr, ptr %6, align 8
  %109 = load ptr, ptr %108, align 8
  %110 = load ptr, ptr %8, align 8
  %111 = call ptr @zend_hash_add_new(ptr noundef %107, ptr noundef %109, ptr noundef %110)
  store ptr %111, ptr %9, align 8
  br label %112

112:                                              ; preds = %106, %101
  br label %113

113:                                              ; preds = %112
  %114 = load ptr, ptr %8, align 8
  %115 = load ptr, ptr %9, align 8
  %116 = getelementptr inbounds %struct._zval_struct, ptr %115, i32 0, i32 0
  store ptr %114, ptr %116, align 8
  %117 = load ptr, ptr %9, align 8
  %118 = getelementptr inbounds %struct._zval_struct, ptr %117, i32 0, i32 1
  store i32 12, ptr %118, align 8
  br label %119

119:                                              ; preds = %113
  %120 = load ptr, ptr %6, align 8
  %121 = getelementptr inbounds ptr, ptr %120, i32 1
  store ptr %121, ptr %6, align 8
  %122 = load ptr, ptr %8, align 8
  %123 = getelementptr inbounds %struct._zval_struct, ptr %122, i32 1
  store ptr %123, ptr %8, align 8
  br label %124

124:                                              ; preds = %119
  %125 = load ptr, ptr %6, align 8
  %126 = load ptr, ptr %7, align 8
  %127 = icmp ne ptr %125, %126
  br i1 %127, label %46, label %128

128:                                              ; preds = %124
  br label %129

129:                                              ; preds = %128, %1
  ret void
}