; Function Attrs: nounwind uwtable
define void @zend_attach_symbol_table(ptr noundef %0) local_unnamed_addr #0 {
  %2 = getelementptr inbounds i8, ptr %0, i64 24
  %3 = load ptr, ptr %2, align 8
  %4 = getelementptr inbounds i8, ptr %0, i64 56
  %5 = load ptr, ptr %4, align 8
  %6 = getelementptr inbounds i8, ptr %3, i64 80
  %7 = load i32, ptr %6, align 8
  %.not = icmp eq i32 %7, 0
  br i1 %.not, label %.loopexit, label %8

8:                                                ; preds = %1
  %9 = getelementptr inbounds i8, ptr %3, i64 112
  %10 = load ptr, ptr %9, align 8
  %11 = sext i32 %7 to i64
  %12 = getelementptr inbounds ptr, ptr %10, i64 %11
  %13 = getelementptr inbounds i8, ptr %0, i64 80
  br label %14

14:                                               ; preds = %34, %8
  %.039 = phi ptr [ %13, %8 ], [ %37, %34 ]
  %.0 = phi ptr [ %10, %8 ], [ %36, %34 ]
  %15 = load ptr, ptr %.0, align 8
  %16 = tail call ptr @zend_hash_find_known_hash(ptr noundef %5, ptr noundef %15) #24
  %.not44 = icmp eq ptr %16, null
  br i1 %.not44, label %30, label %17

17:                                               ; preds = %14
  %18 = getelementptr inbounds i8, ptr %16, i64 8
  %19 = load i8, ptr %18, align 8
  %20 = icmp eq i8 %19, 12
  %21 = load ptr, ptr %16, align 8
  br i1 %20, label %22, label %27

22:                                               ; preds = %17
  %23 = load ptr, ptr %21, align 8
  %24 = getelementptr inbounds i8, ptr %21, i64 8
  %25 = load i32, ptr %24, align 8
  store ptr %23, ptr %.039, align 8
  %26 = getelementptr inbounds i8, ptr %.039, i64 8
  store i32 %25, ptr %26, align 8
  br label %34

27:                                               ; preds = %17
  %28 = load i32, ptr %18, align 8
  store ptr %21, ptr %.039, align 8
  %29 = getelementptr inbounds i8, ptr %.039, i64 8
  store i32 %28, ptr %29, align 8
  br label %34

30:                                               ; preds = %14
  %31 = getelementptr inbounds i8, ptr %.039, i64 8
  store i32 0, ptr %31, align 8
  %32 = load ptr, ptr %.0, align 8
  %33 = tail call ptr @zend_hash_add_new(ptr noundef %5, ptr noundef %32, ptr noundef nonnull %.039) #24
  br label %34

34:                                               ; preds = %30, %27, %22
  %.040 = phi ptr [ %16, %22 ], [ %16, %27 ], [ %33, %30 ]
  store ptr %.039, ptr %.040, align 8
  %35 = getelementptr inbounds i8, ptr %.040, i64 8
  store i32 12, ptr %35, align 8
  %36 = getelementptr inbounds i8, ptr %.0, i64 8
  %37 = getelementptr inbounds i8, ptr %.039, i64 16
  %.not45 = icmp eq ptr %36, %12
  br i1 %.not45, label %.loopexit, label %14

.loopexit:                                        ; preds = %34, %1
  ret void
}